ccopy_reg
_reconstructor
p0
(cpandas.core.series
Series
p1
c__builtin__
object
p2
Ntp3
Rp4
(dp5
S'_metadata'
p6
(lp7
S'name'
p8
asS'_data'
p9
g0
(cpandas.core.internals
SingleBlockManager
p10
g2
Ntp11
Rp12
((lp13
cpandas.indexes.base
_new_Index
p14
(cpandas.indexes.base
Index
p15
(dp16
S'data'
p17
cnumpy.core.multiarray
_reconstruct
p18
(cnumpy
ndarray
p19
(I0
tp20
S'b'
p21
tp22
Rp23
(I1
(I4
tp24
cnumpy
dtype
p25
(S'O8'
p26
I0
I1
tp27
Rp28
(I3
S'|'
p29
NNNI-1
I-1
I63
tp30
bI00
(lp31
S'test-mae-mean'
p32
aS'test-mae-std'
p33
aS'train-mae-mean'
p34
aS'train-mae-std'
p35
atp36
bsg8
Nstp37
Rp38
a(lp39
g18
(g19
(I0
tp40
g21
tp41
Rp42
(I1
(I4
tp43
g25
(S'f8'
p44
I0
I1
tp45
Rp46
(I3
S'<'
p47
NNNI-1
I-1
I0
tp48
bI00
S'\x0bQ\xcf\xcc\xfd\xeb\x91@\x97k\xcd{K\x15#@\xa7\x92\x01\xa0:2\x90@\x87\xd1\xd6#\x97.\xef?'
p49
tp50
ba(lp51
g14
(g15
(dp52
g17
g18
(g19
(I0
tp53
g21
tp54
Rp55
(I1
(I4
tp56
g28
I00
(lp57
g32
ag33
ag34
ag35
atp58
bsg8
Nstp59
Rp60
a(dp61
S'0.14.1'
p62
(dp63
S'axes'
p64
g13
sS'blocks'
p65
(lp66
(dp67
S'mgr_locs'
p68
c__builtin__
slice
p69
(I0
I4
I1
tp70
Rp71
sS'values'
p72
g42
sasstp73
bsS'_typ'
p74
S'series'
p75
sg8
I199
sb.